; ModuleID = 'source-C-CXX/29/3515.c'
source_filename = "source-C-CXX/29/3515.c"
target datalayout = "e-m:e-p270:32:32-p271:32:32-p272:64:64-i64:64-f80:128-n8:16:32:64-S128"
target triple = "x86_64-pc-linux-gnu"

@.str = private unnamed_addr constant [3 x i8] c"%d\00", align 1

; Function Attrs: nofree nounwind sspstrong uwtable
define dso_local i32 @main() local_unnamed_addr #0 {
  %1 = alloca i32, align 4
  %2 = alloca [100 x i32], align 16
  %3 = bitcast i32* %1 to i8*
  call void @llvm.lifetime.start.p0i8(i64 4, i8* nonnull %3) #4
  %4 = bitcast [100 x i32]* %2 to i8*
  call void @llvm.lifetime.start.p0i8(i64 400, i8* nonnull %4) #4
  call void @llvm.memset.p0i8.i64(i8* noundef nonnull align 16 dereferenceable(400) %4, i8 0, i64 400, i1 false)
  %5 = call i32 (i8*, ...) @__isoc99_scanf(i8* getelementptr inbounds ([3 x i8], [3 x i8]* @.str, i64 0, i64 0), i32* nonnull %1)
  %6 = load i32, i32* %1, align 4, !tbaa !5
  %7 = icmp slt i32 %6, 1
  br i1 %7, label %41, label %12

8:                                                ; preds = %27
  %9 = getelementptr inbounds [100 x i32], [100 x i32]* %2, i64 0, i64 0
  %10 = load i32, i32* %9, align 16, !tbaa !5
  %11 = icmp eq i32 %10, 0
  br i1 %11, label %41, label %31

12:                                               ; preds = %0, %27
  %13 = phi i32 [ %29, %27 ], [ 1, %0 ]
  %14 = phi i32 [ %28, %27 ], [ 0, %0 ]
  %15 = urem i32 %13, 10
  %16 = urem i32 %13, 7
  %17 = icmp ne i32 %16, 0
  %18 = icmp ne i32 %15, 7
  %19 = and i1 %17, %18
  %20 = add nsw i32 %13, -70
  %21 = icmp ugt i32 %20, 9
  %22 = select i1 %19, i1 %21, i1 false
  br i1 %22, label %23, label %27

23:                                               ; preds = %12
  %24 = sext i32 %14 to i64
  %25 = getelementptr inbounds [100 x i32], [100 x i32]* %2, i64 0, i64 %24
  store i32 %13, i32* %25, align 4, !tbaa !5
  %26 = add nsw i32 %14, 1
  br label %27

27:                                               ; preds = %12, %23
  %28 = phi i32 [ %26, %23 ], [ %14, %12 ]
  %29 = add nuw i32 %13, 1
  %30 = icmp eq i32 %13, %6
  br i1 %30, label %8, label %12, !llvm.loop !9

31:                                               ; preds = %8, %31
  %32 = phi i64 [ %37, %31 ], [ 0, %8 ]
  %33 = phi i32 [ %39, %31 ], [ %10, %8 ]
  %34 = phi i32 [ %36, %31 ], [ 0, %8 ]
  %35 = mul nsw i32 %33, %33
  %36 = add nuw nsw i32 %35, %34
  %37 = add nuw nsw i64 %32, 1
  %38 = getelementptr inbounds [100 x i32], [100 x i32]* %2, i64 0, i64 %37
  %39 = load i32, i32* %38, align 4, !tbaa !5
  %40 = icmp eq i32 %39, 0
  br i1 %40, label %41, label %31, !llvm.loop !11

41:                                               ; preds = %31, %0, %8
  %42 = phi i32 [ 0, %8 ], [ 0, %0 ], [ %36, %31 ]
  %43 = call i32 (i8*, ...) @printf(i8* nonnull dereferenceable(1) getelementptr inbounds ([3 x i8], [3 x i8]* @.str, i64 0, i64 0), i32 %42)
  call void @llvm.lifetime.end.p0i8(i64 400, i8* nonnull %4) #4
  call void @llvm.lifetime.end.p0i8(i64 4, i8* nonnull %3) #4
  ret i32 0
}

; Function Attrs: argmemonly mustprogress nofree nosync nounwind willreturn
declare void @llvm.lifetime.start.p0i8(i64 immarg, i8* nocapture) #1

; Function Attrs: argmemonly mustprogress nofree nounwind willreturn writeonly
declare void @llvm.memset.p0i8.i64(i8* nocapture writeonly, i8, i64, i1 immarg) #2

; Function Attrs: nofree nounwind
declare noundef i32 @__isoc99_scanf(i8* nocapture noundef readonly, ...) local_unnamed_addr #3

; Function Attrs: nofree nounwind
declare noundef i32 @printf(i8* nocapture noundef readonly, ...) local_unnamed_addr #3

; Function Attrs: argmemonly mustprogress nofree nosync nounwind willreturn
declare void @llvm.lifetime.end.p0i8(i64 immarg, i8* nocapture) #1


!llvm.module.flags = !{!0, !1, !2, !3}
!llvm.ident = !{!4}

!0 = !{i32 1, !"wchar_size", i32 4}
!1 = !{i32 7, !"PIC Level", i32 2}
!2 = !{i32 7, !"PIE Level", i32 2}
!3 = !{i32 7, !"uwtable", i32 1}
!4 = !{!"clang version 13.0.0"}
!5 = !{!6, !6, i64 0}
!6 = !{!"int", !7, i64 0}
!7 = !{!"omnipotent char", !8, i64 0}
!8 = !{!"Simple C/C++ TBAA"}
!9 = distinct !{!9, !10}
!10 = !{!"llvm.loop.mustprogress"}
!11 = distinct !{!11, !10}
